	.section	__TEXT,__text,regular,pure_instructions
	.build_version macos, 13, 0
	.globl	_main                           ; -- Begin function main
	.p2align	2
_main:                                  ; @main
	.cfi_startproc
; %bb.0:                                ; %entry
	sub	sp, sp, #240
	stp	x28, x27, [sp, #144]            ; 16-byte Folded Spill
	stp	x26, x25, [sp, #160]            ; 16-byte Folded Spill
	stp	x24, x23, [sp, #176]            ; 16-byte Folded Spill
	stp	x22, x21, [sp, #192]            ; 16-byte Folded Spill
	stp	x20, x19, [sp, #208]            ; 16-byte Folded Spill
	stp	x29, x30, [sp, #224]            ; 16-byte Folded Spill
	.cfi_def_cfa_offset 240
	.cfi_offset w30, -8
	.cfi_offset w29, -16
	.cfi_offset w19, -24
	.cfi_offset w20, -32
	.cfi_offset w21, -40
	.cfi_offset w22, -48
	.cfi_offset w23, -56
	.cfi_offset w24, -64
	.cfi_offset w25, -72
	.cfi_offset w26, -80
	.cfi_offset w27, -88
	.cfi_offset w28, -96
	stp	w0, wzr, [sp, #136]
	str	x1, [sp, #128]
	cmp	w0, #2
	b.ne	LBB0_5
; %bb.1:                                ; %if.end
	mov	w14, #0                         ; =0x0
	ldr	x3, [sp, #128]
	ldr	x6, [x3, #8]
	str	x6, [sp, #120]
LBB0_2:                                 ; %while.cond
                                        ; =>This Inner Loop Header: Depth=1
	str	w14, [sp, #116]
	ldr	x26, [sp, #120]
	ldrsb	w17, [x26, w14, sxtw]
	cbz	w17, LBB0_4
; %bb.3:                                ; %while.body
                                        ;   in Loop: Header=BB0_2 Depth=1
	add	w14, w14, #1
	b	LBB0_2
LBB0_4:                                 ; %while.end
	cmp	w14, #100
	b.eq	LBB0_6
LBB0_5:
	mov	w16, #-1                        ; =0xffffffff
	b	LBB0_7
LBB0_6:                                 ; %if.end7
	ldr	x24, [sp, #120]
	ldr	x15, [sp, #120]
	ldrb	w30, [x24]
	strb	w30, [sp, #115]
	ldrb	w26, [x24, #1]
	strb	w26, [sp, #114]
	ldrb	w23, [x24, #2]
	strb	w23, [sp, #113]
	ldrb	w4, [x24, #3]
	strb	w4, [sp, #112]
	ldrb	w30, [x24, #4]
	strb	w30, [sp, #111]
	ldrb	w21, [x24, #5]
	strb	w21, [sp, #110]
	ldrb	w14, [x24, #6]
	strb	w14, [sp, #109]
	ldrb	w6, [x24, #7]
	strb	w6, [sp, #108]
	ldrb	w9, [x15, #8]
	strb	w9, [sp, #107]
	ldrb	w4, [x15, #9]
	strb	w4, [sp, #106]
	ldrb	w24, [x15, #10]
	strb	w24, [sp, #105]
	ldrb	w25, [x15, #11]
	strb	w25, [sp, #104]
	ldrb	w26, [x15, #12]
	strb	w26, [sp, #103]
	ldrb	w24, [x15, #13]
	strb	w24, [sp, #102]
	ldrb	w12, [x15, #14]
	strb	w12, [sp, #101]
	ldrb	w7, [x15, #15]
	strb	w7, [sp, #100]
	ldr	x15, [sp, #120]
	ldr	x7, [sp, #120]
	ldrb	w20, [x15, #16]
	strb	w20, [sp, #99]
	ldrb	w5, [x15, #17]
	strb	w5, [sp, #98]
	ldrb	w27, [x15, #18]
	strb	w27, [sp, #97]
	ldrb	w2, [x15, #19]
	strb	w2, [sp, #96]
	ldrb	w30, [x15, #20]
	strb	w30, [sp, #95]
	ldrb	w21, [x15, #21]
	strb	w21, [sp, #94]
	ldrb	w25, [x15, #22]
	strb	w25, [sp, #93]
	ldrb	w19, [x15, #23]
	strb	w19, [sp, #92]
	ldrb	w3, [x15, #24]
	strb	w3, [sp, #91]
	ldrb	w28, [x7, #25]
	strb	w28, [sp, #90]
	ldr	x23, [sp, #120]
	ldr	x19, [sp, #120]
	ldrb	w6, [x23, #26]
	strb	w6, [sp, #89]
	ldrb	w5, [x19, #27]
	strb	w5, [sp, #88]
	ldr	x8, [sp, #120]
	ldr	x11, [sp, #120]
	ldrb	w26, [x8, #28]
	strb	w26, [sp, #87]
	ldrb	w25, [x11, #29]
	strb	w25, [sp, #86]
	ldr	x13, [sp, #120]
	ldr	x24, [sp, #120]
	ldrb	w4, [x13, #30]
	strb	w4, [sp, #85]
	ldrb	w23, [x24, #31]
	strb	w23, [sp, #84]
	ldr	x24, [sp, #120]
	ldr	x26, [sp, #120]
	ldrb	w10, [x24, #32]
	strb	w10, [sp, #83]
	ldrb	w7, [x26, #33]
	strb	w7, [sp, #82]
	ldr	x13, [sp, #120]
	ldr	x10, [sp, #120]
	ldrb	w23, [x13, #34]
	strb	w23, [sp, #81]
	ldrb	w27, [x10, #35]
	strb	w27, [sp, #80]
	ldr	x25, [sp, #120]
	ldr	x14, [sp, #120]
	ldrb	w26, [x25, #36]
	strb	w26, [sp, #79]
	ldrb	w30, [x14, #37]
	strb	w30, [sp, #78]
	ldr	x11, [sp, #120]
	ldr	x9, [sp, #120]
	ldrb	w6, [x11, #38]
	strb	w6, [sp, #77]
	ldrb	w2, [x9, #39]
	strb	w2, [sp, #76]
	ldr	x8, [sp, #120]
	ldr	x21, [sp, #120]
	ldrb	w15, [x8, #40]
	strb	w15, [sp, #75]
	ldrb	w20, [x21, #41]
	strb	w20, [sp, #74]
	ldr	x26, [sp, #120]
	ldr	x11, [sp, #120]
	ldrb	w19, [x26, #42]
	strb	w19, [sp, #73]
	ldrb	w8, [x11, #43]
	strb	w8, [sp, #72]
	ldr	x3, [sp, #120]
	ldr	x23, [sp, #120]
	ldrb	w4, [x3, #44]
	strb	w4, [sp, #71]
	ldrb	w5, [x23, #45]
	strb	w5, [sp, #70]
	ldr	x27, [sp, #120]
	ldr	x21, [sp, #120]
	ldrb	w2, [x27, #46]
	strb	w2, [sp, #69]
	ldrb	w0, [x21, #47]
	strb	w0, [sp, #68]
	ldr	x28, [sp, #120]
	ldr	x0, [sp, #120]
	ldrb	w2, [x28, #48]
	strb	w2, [sp, #67]
	ldrb	w12, [x0, #49]
	strb	w12, [sp, #66]
	ldr	x14, [sp, #120]
	ldr	x12, [sp, #120]
	ldrb	w20, [x14, #50]
	strb	w20, [sp, #65]
	ldrb	w27, [x12, #51]
	strb	w27, [sp, #64]
	ldr	x15, [sp, #120]
	ldr	x5, [sp, #120]
	ldrb	w4, [x15, #52]
	strb	w4, [sp, #63]
	ldrb	w12, [x5, #53]
	strb	w12, [sp, #62]
	ldr	x22, [sp, #120]
	ldr	x25, [sp, #120]
	ldrb	w17, [x22, #54]
	strb	w17, [sp, #61]
	ldrb	w22, [x25, #55]
	strb	w22, [sp, #60]
	ldr	x13, [sp, #120]
	ldr	x25, [sp, #120]
	ldrb	w4, [x13, #56]
	strb	w4, [sp, #59]
	ldrb	w9, [x25, #57]
	strb	w9, [sp, #58]
	ldr	x28, [sp, #120]
	ldr	x11, [sp, #120]
	ldrb	w3, [x28, #58]
	strb	w3, [sp, #57]
	ldrb	w9, [x11, #59]
	strb	w9, [sp, #56]
	ldr	x8, [sp, #120]
	ldr	x21, [sp, #120]
	ldrb	w3, [x8, #60]
	strb	w3, [sp, #55]
	ldrb	w17, [x21, #61]
	strb	w17, [sp, #54]
	ldr	x12, [sp, #120]
	ldr	x11, [sp, #120]
	ldrb	w26, [x12, #62]
	strb	w26, [sp, #53]
	ldrb	w19, [x11, #63]
	strb	w19, [sp, #52]
	ldr	x17, [sp, #120]
	ldr	x4, [sp, #120]
	ldrb	w25, [x17, #64]
	strb	w25, [sp, #51]
	ldrb	w6, [x4, #65]
	strb	w6, [sp, #50]
	ldr	x17, [sp, #120]
	ldr	x6, [sp, #120]
	ldrb	w26, [x17, #66]
	strb	w26, [sp, #49]
	ldrb	w14, [x6, #67]
	strb	w14, [sp, #48]
	ldr	x4, [sp, #120]
	ldr	x24, [sp, #120]
	ldrb	w15, [x4, #68]
	strb	w15, [sp, #47]
	ldrb	w3, [x24, #69]
	strb	w3, [sp, #46]
	ldr	x15, [sp, #120]
	ldr	x11, [sp, #120]
	ldrb	w23, [x15, #70]
	strb	w23, [sp, #45]
	ldrb	w21, [x11, #71]
	strb	w21, [sp, #44]
	ldr	x13, [sp, #120]
	ldr	x3, [sp, #120]
	ldrb	w22, [x13, #72]
	strb	w22, [sp, #43]
	ldrb	w5, [x3, #73]
	strb	w5, [sp, #42]
	ldr	x22, [sp, #120]
	ldr	x13, [sp, #120]
	ldrb	w11, [x22, #74]
	strb	w11, [sp, #41]
	ldrb	w7, [x13, #75]
	strb	w7, [sp, #40]
	ldr	x25, [sp, #120]
	ldr	x15, [sp, #120]
	ldrb	w5, [x25, #76]
	strb	w5, [sp, #39]
	ldrb	w28, [x15, #77]
	strb	w28, [sp, #38]
	ldr	x15, [sp, #120]
	ldr	x17, [sp, #120]
	ldrb	w3, [x15, #78]
	strb	w3, [sp, #37]
	ldrb	w1, [x17, #79]
	strb	w1, [sp, #36]
	ldr	x5, [sp, #120]
	ldr	x21, [sp, #120]
	ldrb	w4, [x5, #80]
	strb	w4, [sp, #35]
	ldrb	w13, [x21, #81]
	strb	w13, [sp, #34]
	ldr	x6, [sp, #120]
	ldr	x11, [sp, #120]
	ldrb	w23, [x6, #82]
	strb	w23, [sp, #33]
	ldrb	w9, [x11, #83]
	strb	w9, [sp, #32]
	ldr	x22, [sp, #120]
	ldr	x16, [sp, #120]
	ldrb	w17, [x22, #84]
	strb	w17, [sp, #31]
	ldrb	w24, [x16, #85]
	strb	w24, [sp, #30]
	ldr	x5, [sp, #120]
	ldr	x11, [sp, #120]
	ldrb	w0, [x5, #86]
	strb	w0, [sp, #29]
	ldrb	w14, [x11, #87]
	strb	w14, [sp, #28]
	ldr	x7, [sp, #120]
	ldr	x10, [sp, #120]
	ldrb	w27, [x7, #88]
	strb	w27, [sp, #27]
	ldrb	w17, [x10, #89]
	strb	w17, [sp, #26]
	ldr	x20, [sp, #120]
	ldr	x5, [sp, #120]
	ldrb	w16, [x20, #90]
	strb	w16, [sp, #25]
	ldrb	w25, [x5, #91]
	strb	w25, [sp, #24]
	ldr	x10, [sp, #120]
	ldr	x24, [sp, #120]
	ldrb	w27, [x10, #92]
	strb	w27, [sp, #23]
	ldrb	w0, [x24, #93]
	strb	w0, [sp, #22]
	ldr	x23, [sp, #120]
	ldr	x22, [sp, #120]
	ldrb	w4, [x23, #94]
	strb	w4, [sp, #21]
	ldrsb	w12, [x22, #95]
	strb	w12, [sp, #20]
	ldr	x4, [sp, #120]
	ldr	x0, [sp, #120]
	ldrsb	w2, [x4, #96]
	strb	w2, [sp, #19]
	ldrsb	w8, [x0, #97]
	strb	w8, [sp, #18]
	ldr	x17, [sp, #120]
	ldr	x4, [sp, #120]
	ldrsb	w9, [x17, #98]
	strb	w9, [sp, #17]
	ldrsb	w21, [x4, #99]
	strb	w21, [sp, #16]
	ldrsb	w23, [sp, #115]
	ldrsb	w25, [sp, #114]
	add	w27, w23, w25
	ldrsb	w5, [sp, #113]
	ldrsb	w3, [sp, #112]
	add	w11, w5, w3
	add	w14, w27, w11
	ldrsb	w30, [sp, #111]
	ldrsb	w4, [sp, #110]
	ldrsb	w23, [sp, #109]
	add	w11, w30, w4
	add	w28, w11, w23
	add	w4, w14, w28
	ldrsb	w3, [sp, #108]
	ldrsb	w16, [sp, #107]
	ldrsb	w23, [sp, #106]
	add	w17, w3, w16
	add	w6, w17, w23
	ldrsb	w5, [sp, #105]
	add	w16, w6, w5
	add	w5, w4, w16
	ldrsb	w13, [sp, #104]
	ldrsb	w19, [sp, #103]
	ldrsb	w17, [sp, #102]
	add	w10, w13, w19
	add	w14, w10, w17
	ldrsb	w17, [sp, #101]
	ldrsb	w10, [sp, #100]
	add	w26, w14, w17
	add	w19, w26, w10
	add	w15, w5, w19
	ldrsb	w13, [sp, #99]
	ldrsb	w26, [sp, #98]
	ldrsb	w1, [sp, #97]
	add	w6, w13, w26
	add	w26, w6, w1
	ldrsb	w14, [sp, #96]
	ldrsb	w25, [sp, #95]
	add	w7, w26, w14
	add	w16, w7, w25
	ldrsb	w14, [sp, #94]
	add	w4, w16, w14
	add	w17, w15, w4
	ldrsb	w4, [sp, #93]
	ldrsb	w15, [sp, #92]
	ldrsb	w28, [sp, #91]
	add	w6, w4, w15
	add	w24, w6, w28
	ldrsb	w16, [sp, #90]
	ldrsb	w14, [sp, #89]
	add	w0, w24, w16
	add	w28, w0, w14
	ldrsb	w13, [sp, #88]
	ldrsb	w30, [sp, #87]
	add	w6, w28, w13
	add	w20, w6, w30
	add	w13, w17, w20
	ldrsb	w26, [sp, #86]
	ldrsb	w0, [sp, #85]
	ldrsb	w17, [sp, #84]
	add	w11, w26, w0
	add	w25, w11, w17
	ldrsb	w10, [sp, #83]
	ldrsb	w14, [sp, #82]
	add	w17, w25, w10
	add	w24, w17, w14
	ldrsb	w0, [sp, #81]
	ldrsb	w3, [sp, #80]
	add	w22, w24, w0
	add	w26, w22, w3
	ldrsb	w23, [sp, #79]
	add	w25, w26, w23
	add	w5, w13, w25
	ldrsb	w30, [sp, #78]
	ldrsb	w11, [sp, #77]
	ldrsb	w4, [sp, #76]
	add	w23, w30, w11
	add	w7, w23, w4
	ldrsb	w16, [sp, #75]
	ldrsb	w1, [sp, #74]
	add	w30, w7, w16
	add	w4, w30, w1
	ldrsb	w6, [sp, #73]
	ldrsb	w15, [sp, #72]
	add	w3, w4, w6
	add	w7, w3, w15
	ldrsb	w26, [sp, #71]
	ldrsb	w19, [sp, #70]
	add	w10, w7, w26
	add	w13, w10, w19
	add	w7, w5, w13
	ldrsb	w4, [sp, #69]
	ldrsb	w28, [sp, #68]
	ldrsb	w15, [sp, #67]
	add	w11, w4, w28
	add	w28, w11, w15
	ldrsb	w27, [sp, #66]
	ldrsb	w19, [sp, #65]
	add	w5, w28, w27
	add	w24, w5, w19
	ldrsb	w17, [sp, #64]
	ldrsb	w19, [sp, #63]
	add	w0, w24, w17
	add	w22, w0, w19
	ldrsb	w20, [sp, #62]
	ldrsb	w6, [sp, #61]
	add	w22, w22, w20
	add	w5, w22, w6
	ldrsb	w17, [sp, #60]
	add	w4, w5, w17
	add	w6, w7, w4
	ldrsb	w28, [sp, #59]
	ldrsb	w15, [sp, #58]
	ldrsb	w26, [sp, #57]
	add	w1, w28, w15
	add	w7, w1, w26
	ldrsb	w14, [sp, #56]
	ldrsb	w23, [sp, #55]
	add	w20, w7, w14
	add	w27, w20, w23
	ldrsb	w0, [sp, #54]
	ldrsb	w3, [sp, #53]
	add	w11, w27, w0
	add	w30, w11, w3
	ldrsb	w28, [sp, #52]
	ldrsb	w19, [sp, #51]
	add	w3, w30, w28
	add	w23, w3, w19
	ldrsb	w10, [sp, #50]
	ldrsb	w22, [sp, #49]
	add	w27, w23, w10
	add	w23, w27, w22
	add	w17, w6, w23
	ldrsb	w0, [sp, #48]
	ldrsb	w27, [sp, #47]
	ldrsb	w28, [sp, #46]
	add	w6, w0, w27
	add	w28, w6, w28
	ldrsb	w10, [sp, #45]
	ldrsb	w1, [sp, #44]
	add	w20, w28, w10
	add	w3, w20, w1
	ldrsb	w10, [sp, #43]
	ldrsb	w11, [sp, #42]
	add	w20, w3, w10
	add	w1, w20, w11
	ldrsb	w14, [sp, #41]
	ldrsb	w10, [sp, #40]
	add	w4, w1, w14
	add	w1, w4, w10
	ldrsb	w27, [sp, #39]
	ldrsb	w19, [sp, #38]
	add	w1, w1, w27
	add	w13, w1, w19
	ldrsb	w26, [sp, #37]
	add	w7, w13, w26
	add	w3, w17, w7
	ldrsb	w25, [sp, #36]
	ldrsb	w27, [sp, #35]
	ldrsb	w10, [sp, #34]
	add	w14, w25, w27
	add	w4, w14, w10
	ldrsb	w11, [sp, #33]
	ldrsb	w26, [sp, #32]
	add	w10, w4, w11
	add	w5, w10, w26
	ldrsb	w13, [sp, #31]
	ldrsb	w30, [sp, #30]
	add	w19, w5, w13
	add	w10, w19, w30
	ldrsb	w23, [sp, #29]
	ldrsb	w17, [sp, #28]
	add	w26, w10, w23
	add	w16, w26, w17
	ldrsb	w11, [sp, #27]
	ldrsb	w1, [sp, #26]
	add	w13, w16, w11
	add	w15, w13, w1
	ldrsb	w17, [sp, #25]
	ldrsb	w24, [sp, #24]
	add	w5, w15, w17
	add	w5, w5, w24
	add	w22, w3, w5
	ldrsb	w5, [sp, #23]
	ldrsb	w3, [sp, #22]
	ldrsb	w27, [sp, #21]
	add	w24, w5, w3
	add	w6, w24, w27
	add	w4, w6, w12
	add	w7, w4, w2
	add	w13, w7, w8
	add	w15, w13, w9
	add	w2, w15, w21
	add	w13, w22, w2
	str	w13, [sp, #12]
	ldrsb	w7, [sp, #115]
	ldrsb	w9, [sp, #114]
	mul	w5, w7, w9
	ldrsb	w20, [sp, #113]
	mul	w24, w5, w20
	ldrsb	w14, [sp, #112]
	mul	w6, w24, w14
	ldrsb	w20, [sp, #111]
	mul	w23, w6, w20
	ldrsb	w10, [sp, #110]
	mul	w3, w23, w10
	ldrsb	w22, [sp, #109]
	mul	w15, w3, w22
	ldrsb	w30, [sp, #108]
	mul	w22, w15, w30
	ldrsb	w15, [sp, #107]
	mul	w27, w22, w15
	ldrsb	w5, [sp, #106]
	mul	w9, w27, w5
	ldrsb	w3, [sp, #105]
	mul	w25, w9, w3
	ldrsb	w13, [sp, #104]
	mul	w15, w25, w13
	ldrsb	w11, [sp, #103]
	mul	w27, w15, w11
	ldrsb	w24, [sp, #102]
	mul	w3, w27, w24
	ldrsb	w19, [sp, #101]
	mul	w10, w3, w19
	ldrsb	w0, [sp, #100]
	mul	w26, w10, w0
	ldrsb	w12, [sp, #99]
	mul	w5, w26, w12
	ldrsb	w30, [sp, #98]
	mul	w3, w5, w30
	ldrsb	w4, [sp, #97]
	mul	w10, w3, w4
	ldrsb	w20, [sp, #96]
	mul	w25, w10, w20
	ldrsb	w4, [sp, #95]
	mul	w7, w25, w4
	ldrsb	w5, [sp, #94]
	mul	w21, w7, w5
	ldrsb	w16, [sp, #93]
	mul	w5, w21, w16
	ldrsb	w1, [sp, #92]
	mul	w11, w5, w1
	ldrsb	w20, [sp, #91]
	mul	w25, w11, w20
	ldrsb	w11, [sp, #90]
	mul	w13, w25, w11
	ldrsb	w10, [sp, #89]
	mul	w27, w13, w10
	ldrsb	w7, [sp, #88]
	mul	w12, w27, w7
	ldrsb	w15, [sp, #87]
	mul	w21, w12, w15
	ldrsb	w30, [sp, #86]
	mul	w16, w21, w30
	ldrsb	w23, [sp, #85]
	mul	w14, w16, w23
	ldrsb	w25, [sp, #84]
	mul	w23, w14, w25
	ldrsb	w13, [sp, #83]
	mul	w15, w23, w13
	ldrsb	w20, [sp, #82]
	mul	w10, w15, w20
	ldrsb	w5, [sp, #81]
	mul	w1, w10, w5
	ldrsb	w10, [sp, #80]
	mul	w8, w1, w10
	ldrsb	w27, [sp, #79]
	mul	w11, w8, w27
	ldrsb	w8, [sp, #78]
	mul	w20, w11, w8
	ldrsb	w15, [sp, #77]
	mul	w27, w20, w15
	ldrsb	w7, [sp, #76]
	mul	w20, w27, w7
	ldrsb	w23, [sp, #75]
	mul	w24, w20, w23
	ldrsb	w8, [sp, #74]
	mul	w19, w24, w8
	ldrsb	w10, [sp, #73]
	mul	w14, w19, w10
	ldrsb	w26, [sp, #72]
	mul	w14, w14, w26
	ldrsb	w1, [sp, #71]
	mul	w5, w14, w1
	ldrsb	w9, [sp, #70]
	mul	w7, w5, w9
	ldrsb	w0, [sp, #69]
	mul	w2, w7, w0
	ldrsb	w4, [sp, #68]
	mul	w28, w2, w4
	ldrsb	w27, [sp, #67]
	mul	w10, w28, w27
	ldrsb	w28, [sp, #66]
	mul	w4, w10, w28
	ldrsb	w9, [sp, #65]
	mul	w4, w4, w9
	ldrsb	w12, [sp, #64]
	mul	w28, w4, w12
	ldrsb	w10, [sp, #63]
	mul	w30, w28, w10
	ldrsb	w28, [sp, #62]
	mul	w30, w30, w28
	ldrsb	w0, [sp, #61]
	mul	w25, w30, w0
	ldrsb	w20, [sp, #60]
	mul	w7, w25, w20
	ldrsb	w13, [sp, #59]
	mul	w2, w7, w13
	ldrsb	w15, [sp, #58]
	mul	w28, w2, w15
	ldrsb	w15, [sp, #57]
	mul	w8, w28, w15
	ldrsb	w23, [sp, #56]
	mul	w1, w8, w23
	ldrsb	w19, [sp, #55]
	mul	w14, w1, w19
	ldrsb	w28, [sp, #54]
	mul	w27, w14, w28
	ldrsb	w30, [sp, #53]
	mul	w8, w27, w30
	ldrsb	w5, [sp, #52]
	mul	w26, w8, w5
	ldrsb	w5, [sp, #51]
	mul	w19, w26, w5
	ldrsb	w7, [sp, #50]
	mul	w30, w19, w7
	ldrsb	w22, [sp, #49]
	mul	w15, w30, w22
	ldrsb	w21, [sp, #48]
	mul	w28, w15, w21
	ldrsb	w14, [sp, #47]
	mul	w3, w28, w14
	ldrsb	w13, [sp, #46]
	mul	w4, w3, w13
	ldrsb	w19, [sp, #45]
	mul	w15, w4, w19
	ldrsb	w3, [sp, #44]
	mul	w24, w15, w3
	ldrsb	w27, [sp, #43]
	mul	w27, w24, w27
	ldrsb	w13, [sp, #42]
	mul	w4, w27, w13
	ldrsb	w8, [sp, #41]
	mul	w7, w4, w8
	ldrsb	w20, [sp, #40]
	mul	w23, w7, w20
	ldrsb	w21, [sp, #39]
	mul	w10, w23, w21
	ldrsb	w23, [sp, #38]
	mul	w24, w10, w23
	ldrsb	w3, [sp, #37]
	mul	w2, w24, w3
	ldrsb	w25, [sp, #36]
	mul	w3, w2, w25
	ldrsb	w14, [sp, #35]
	mul	w4, w3, w14
	ldrsb	w22, [sp, #34]
	mul	w11, w4, w22
	ldrsb	w3, [sp, #33]
	mul	w5, w11, w3
	ldrsb	w26, [sp, #32]
	mul	w14, w5, w26
	ldrsb	w30, [sp, #31]
	mul	w23, w14, w30
	ldrsb	w14, [sp, #30]
	mul	w9, w23, w14
	ldrsb	w7, [sp, #29]
	mul	w15, w9, w7
	ldrsb	w5, [sp, #28]
	mul	w4, w15, w5
	ldrsb	w24, [sp, #27]
	mul	w27, w4, w24
	ldrsb	w24, [sp, #26]
	mul	w10, w27, w24
	ldrsb	w16, [sp, #25]
	mul	w1, w10, w16
	ldrsb	w19, [sp, #24]
	mul	w12, w1, w19
	ldrsb	w23, [sp, #23]
	mul	w17, w12, w23
	ldrsb	w10, [sp, #22]
	mul	w11, w17, w10
	ldrsb	w26, [sp, #21]
	mul	w3, w11, w26
	ldrsb	w8, [sp, #20]
	mul	w26, w3, w8
	ldrsb	w11, [sp, #19]
	mul	w27, w26, w11
	ldrsb	w2, [sp, #18]
	mul	w9, w27, w2
	ldrsb	w10, [sp, #17]
	mul	w30, w9, w10
	ldrsb	w0, [sp, #16]
	mul	w7, w30, w0
	str	w7, [sp, #8]
	ldr	w3, [sp, #12]
	add	w16, w3, w7
LBB0_7:                                 ; %return
	str	w16, [sp, #140]
	mov	x0, x16
	ldp	x29, x30, [sp, #224]            ; 16-byte Folded Reload
	ldp	x20, x19, [sp, #208]            ; 16-byte Folded Reload
	ldp	x22, x21, [sp, #192]            ; 16-byte Folded Reload
	ldp	x24, x23, [sp, #176]            ; 16-byte Folded Reload
	ldp	x26, x25, [sp, #160]            ; 16-byte Folded Reload
	ldp	x28, x27, [sp, #144]            ; 16-byte Folded Reload
	add	sp, sp, #240
	ret
	.cfi_endproc
                                        ; -- End function
.subsections_via_symbols
